target datalayout = "e-m:e-p270:32:32-p271:32:32-p272:64:64-i64:64-i128:128-f80:128-n8:16:32:64-S128"
target triple = "x86_64-pc-linux-gnu"

%struct.PageHeaderData = type { %struct.PageXLogRecPtr, i16, i16, i16, i16, i16, i16, i32, [0 x %struct.ItemIdData] }
%struct.PageXLogRecPtr = type { i32, i32 }
%struct.ItemIdData = type { i32 }
%struct.IndexTupleData = type { %struct.ItemPointerData, i16 }
%struct.ItemPointerData = type { %struct.BlockIdData, i16 }
%struct.BlockIdData = type { i16, i16 }

; Function Attrs: inlinehint nounwind uwtable
define internal i64 @IndexInfoFindDataOffset(i16 noundef zeroext %0) #3 {
  %2 = alloca i64, align 8
  %3 = alloca i16, align 2
  store i16 %0, ptr %3, align 2
  %4 = load i16, ptr %3, align 2
  %5 = zext i16 %4 to i32
  %6 = and i32 %5, 32768
  %7 = icmp ne i32 %6, 0
  br i1 %7, label %9, label %8

8:                                                ; preds = %1
  store i64 8, ptr %2, align 8
  br label %10

9:                                                ; preds = %1
  store i64 16, ptr %2, align 8
  br label %10

10:                                               ; preds = %9, %8
  %11 = load i64, ptr %2, align 8
  ret i64 %11
}

; Function Attrs: nounwind uwtable
define dso_local i32 @_hash_get_indextuple_hashkey(ptr noundef %0) #0 {
  %2 = alloca ptr, align 8
  %3 = alloca ptr, align 8
  store ptr %0, ptr %2, align 8
  call void @llvm.lifetime.start.p0(i64 8, ptr %3) #6
  %4 = load ptr, ptr %2, align 8
  %5 = load ptr, ptr %2, align 8
  %6 = getelementptr inbounds nuw %struct.IndexTupleData, ptr %5, i32 0, i32 1
  %7 = load i16, ptr %6, align 2
  %8 = call i64 @IndexInfoFindDataOffset(i16 noundef zeroext %7)
  %9 = getelementptr inbounds nuw i8, ptr %4, i64 %8
  store ptr %9, ptr %3, align 8
  %10 = load ptr, ptr %3, align 8
  %11 = load i32, ptr %10, align 4
  call void @llvm.lifetime.end.p0(i64 8, ptr %3) #6
  ret i32 %11
}

; Function Attrs: inlinehint nounwind uwtable
define internal ptr @PageGetItem(ptr noundef %0, ptr noundef %1) #3 {
  %3 = alloca ptr, align 8
  %4 = alloca ptr, align 8
  store ptr %0, ptr %3, align 8
  store ptr %1, ptr %4, align 8
  %5 = load ptr, ptr %3, align 8
  %6 = load ptr, ptr %4, align 8
  %7 = load i32, ptr %6, align 4
  %8 = and i32 %7, 32767
  %9 = sext i32 %8 to i64
  %10 = getelementptr inbounds i8, ptr %5, i64 %9
  ret ptr %10
}

; Function Attrs: inlinehint nounwind uwtable
define internal ptr @PageGetItemId(ptr noundef %0, i16 noundef zeroext %1) #3 {
  %3 = alloca ptr, align 8
  %4 = alloca i16, align 2
  store ptr %0, ptr %3, align 8
  store i16 %1, ptr %4, align 2
  %5 = load ptr, ptr %3, align 8
  %6 = getelementptr inbounds nuw %struct.PageHeaderData, ptr %5, i32 0, i32 8
  %7 = load i16, ptr %4, align 2
  %8 = zext i16 %7 to i32
  %9 = sub i32 %8, 1
  %10 = sext i32 %9 to i64
  %11 = getelementptr inbounds [0 x %struct.ItemIdData], ptr %6, i64 0, i64 %10
  ret ptr %11
}

; Function Attrs: inlinehint nounwind uwtable
define internal zeroext i16 @PageGetMaxOffsetNumber(ptr noundef %0) #3 {
  %2 = alloca i16, align 2
  %3 = alloca ptr, align 8
  %4 = alloca ptr, align 8
  %5 = alloca i32, align 4
  store ptr %0, ptr %3, align 8
  call void @llvm.lifetime.start.p0(i64 8, ptr %4) #6
  %6 = load ptr, ptr %3, align 8
  store ptr %6, ptr %4, align 8
  %7 = load ptr, ptr %4, align 8
  %8 = getelementptr inbounds nuw %struct.PageHeaderData, ptr %7, i32 0, i32 3
  %9 = load i16, ptr %8, align 4
  %10 = zext i16 %9 to i64
  %11 = icmp ule i64 %10, 24
  br i1 %11, label %12, label %13

12:                                               ; preds = %1
  store i16 0, ptr %2, align 2
  store i32 1, ptr %5, align 4
  br label %21

13:                                               ; preds = %1
  %14 = load ptr, ptr %4, align 8
  %15 = getelementptr inbounds nuw %struct.PageHeaderData, ptr %14, i32 0, i32 3
  %16 = load i16, ptr %15, align 4
  %17 = zext i16 %16 to i64
  %18 = sub i64 %17, 24
  %19 = udiv i64 %18, 4
  %20 = trunc i64 %19 to i16
  store i16 %20, ptr %2, align 2
  store i32 1, ptr %5, align 4
  br label %21

21:                                               ; preds = %13, %12
  call void @llvm.lifetime.end.p0(i64 8, ptr %4) #6
  %22 = load i16, ptr %2, align 2
  ret i16 %22
}

; Function Attrs: nounwind uwtable
define dso_local zeroext i16 @_hash_binsearch(ptr noundef %0, i32 noundef %1) #0 {
  %3 = alloca ptr, align 8
  %4 = alloca i32, align 4
  %5 = alloca i16, align 2
  %6 = alloca i16, align 2
  %7 = alloca i16, align 2
  %8 = alloca ptr, align 8
  %9 = alloca i32, align 4
  store ptr %0, ptr %3, align 8
  store i32 %1, ptr %4, align 4
  call void @llvm.lifetime.start.p0(i64 2, ptr %5) #6
  call void @llvm.lifetime.start.p0(i64 2, ptr %6) #6
  %10 = load ptr, ptr %3, align 8
  %11 = call zeroext i16 @PageGetMaxOffsetNumber(ptr noundef %10)
  %12 = zext i16 %11 to i32
  %13 = add i32 %12, 1
  %14 = trunc i32 %13 to i16
  store i16 %14, ptr %5, align 2
  store i16 1, ptr %6, align 2
  br label %15

15:                                               ; preds = %46, %2
  %16 = load i16, ptr %5, align 2
  %17 = zext i16 %16 to i32
  %18 = load i16, ptr %6, align 2
  %19 = zext i16 %18 to i32
  %20 = icmp sgt i32 %17, %19
  br i1 %20, label %21, label %47

21:                                               ; preds = %15
  call void @llvm.lifetime.start.p0(i64 2, ptr %7) #6
  call void @llvm.lifetime.start.p0(i64 8, ptr %8) #6
  call void @llvm.lifetime.start.p0(i64 4, ptr %9) #6
  %22 = load i16, ptr %5, align 2
  %23 = zext i16 %22 to i32
  %24 = load i16, ptr %6, align 2
  %25 = zext i16 %24 to i32
  %26 = add i32 %23, %25
  %27 = sdiv i32 %26, 2
  %28 = trunc i32 %27 to i16
  store i16 %28, ptr %7, align 2
  %29 = load ptr, ptr %3, align 8
  %30 = load ptr, ptr %3, align 8
  %31 = load i16, ptr %7, align 2
  %32 = call ptr @PageGetItemId(ptr noundef %30, i16 noundef zeroext %31)
  %33 = call ptr @PageGetItem(ptr noundef %29, ptr noundef %32)
  store ptr %33, ptr %8, align 8
  %34 = load ptr, ptr %8, align 8
  %35 = call i32 @_hash_get_indextuple_hashkey(ptr noundef %34)
  store i32 %35, ptr %9, align 4
  %36 = load i32, ptr %9, align 4
  %37 = load i32, ptr %4, align 4
  %38 = icmp ult i32 %36, %37
  br i1 %38, label %39, label %44

39:                                               ; preds = %21
  %40 = load i16, ptr %7, align 2
  %41 = zext i16 %40 to i32
  %42 = add i32 %41, 1
  %43 = trunc i32 %42 to i16
  store i16 %43, ptr %6, align 2
  br label %46

44:                                               ; preds = %21
  %45 = load i16, ptr %7, align 2
  store i16 %45, ptr %5, align 2
  br label %46

46:                                               ; preds = %44, %39
  call void @llvm.lifetime.end.p0(i64 4, ptr %9) #6
  call void @llvm.lifetime.end.p0(i64 8, ptr %8) #6
  call void @llvm.lifetime.end.p0(i64 2, ptr %7) #6
  br label %15, !llvm.loop !6

47:                                               ; preds = %15
  %48 = load i16, ptr %6, align 2
  call void @llvm.lifetime.end.p0(i64 2, ptr %6) #6
  call void @llvm.lifetime.end.p0(i64 2, ptr %5) #6
  ret i16 %48
}