; Function Attrs: nofree norecurse nosync nounwind memory(argmem: read) uwtable
define dso_local zeroext i16 @_hash_binsearch(ptr noundef readonly captures(none) %0, i32 noundef %1) local_unnamed_addr #5 {
  %3 = getelementptr i8, ptr %0, i64 12
  %.val = load i16, ptr %3, align 4
  %4 = icmp ult i16 %.val, 25
  %5 = zext i16 %.val to i32
  %6 = add nuw nsw i32 %5, 262120
  %7 = lshr i32 %6, 2
  %8 = trunc i32 %7 to i16
  %9 = add nuw nsw i16 %8, 1
  %narrow = select i1 %4, i16 1, i16 %9
  %10 = icmp ugt i16 %narrow, 1
  br i1 %10, label %.lr.ph, label %._crit_edge

.lr.ph:                                           ; preds = %2
  %11 = getelementptr inbounds nuw i8, ptr %0, i64 24
  br label %12

12:                                               ; preds = %.lr.ph, %12
  %.019 = phi i16 [ %narrow, %.lr.ph ], [ %.1, %12 ]
  %.01318 = phi i16 [ 1, %.lr.ph ], [ %.114, %12 ]
  %13 = zext i16 %.01318 to i32
  %14 = zext nneg i16 %.019 to i32
  %15 = add nuw nsw i32 %14, %13
  %16 = lshr i32 %15, 1
  %17 = trunc nuw i32 %16 to i16
  %18 = zext nneg i32 %16 to i64
  %19 = add nsw i64 %18, -1
  %20 = getelementptr inbounds [0 x %struct.ItemIdData], ptr %11, i64 0, i64 %19
  %.val17 = load i32, ptr %20, align 4
  %21 = and i32 %.val17, 32767
  %22 = zext nneg i32 %21 to i64
  %23 = getelementptr inbounds nuw i8, ptr %0, i64 %22
  %24 = getelementptr inbounds nuw i8, ptr %23, i64 6
  %25 = load i16, ptr %24, align 2
  %.not.i.i = icmp sgt i16 %25, -1
  %..i.i = select i1 %.not.i.i, i64 8, i64 16
  %26 = getelementptr inbounds nuw i8, ptr %23, i64 %..i.i
  %27 = load i32, ptr %26, align 4
  %28 = icmp ult i32 %27, %1
  %29 = add nuw i16 %17, 1
  %.114 = select i1 %28, i16 %29, i16 %.01318
  %.1 = select i1 %28, i16 %.019, i16 %17
  %30 = icmp ugt i16 %.1, %.114
  br i1 %30, label %12, label %._crit_edge, !llvm.loop !6

._crit_edge:                                      ; preds = %12, %2
  %.013.lcssa = phi i16 [ 1, %2 ], [ %.114, %12 ]
  ret i16 %.013.lcssa
}